target datalayout = "e-m:e-p270:32:32-p271:32:32-p272:64:64-i64:64-i128:128-f80:128-n8:16:32:64-S128"
target triple = "x86_64-pc-linux-gnu"

%struct.png_struct_def = type { [1 x %struct.__jmp_buf_tag], ptr, ptr, i64, ptr, ptr, ptr, ptr, ptr, ptr, ptr, ptr, ptr, i8, i8, i32, i32, i32, i32, %struct.z_stream_s, ptr, i32, i32, i32, i32, i32, i32, i32, i32, i32, i32, i32, i32, i32, i32, i32, i32, i32, i32, i32, i32, i64, i32, i32, i32, ptr, ptr, ptr, ptr, i64, i32, i32, ptr, i16, i32, i16, i8, i8, i8, i8, i8, i8, i8, i8, i8, i8, i8, i8, i8, i8, i8, i16, i8, i32, %struct.png_color_16_struct, %struct.png_color_16_struct, ptr, i32, i32, i32, i32, ptr, ptr, ptr, ptr, ptr, ptr, %struct.png_color_8_struct, %struct.png_color_8_struct, ptr, %struct.png_color_16_struct, ptr, ptr, ptr, ptr, ptr, ptr, ptr, ptr, ptr, i32, i32, i64, i64, i64, i64, i32, i32, ptr, ptr, i32, [29 x i8], i32, ptr, ptr, i32, i32, ptr, i8, i8, i16, i16, ptr, i32, i8, ptr, ptr, ptr, ptr, ptr, ptr, ptr, i8, i32, i32, i32, i64, %struct.png_unknown_chunk_t, i64, ptr, i64, i32, i32, ptr, [4 x ptr], %struct.png_colorspace }
%struct.__jmp_buf_tag = type { [8 x i64], i32, %struct.__sigset_t }
%struct.__sigset_t = type { [16 x i64] }
%struct.z_stream_s = type { ptr, i32, i64, ptr, i32, i64, ptr, ptr, ptr, ptr, ptr, i32, i64, i64 }
%struct.png_color_8_struct = type { i8, i8, i8, i8, i8 }
%struct.png_color_16_struct = type { i8, i16, i16, i16, i16 }
%struct.png_unknown_chunk_t = type { [5 x i8], ptr, i64, i8 }
%struct.png_colorspace = type { i32, %struct.png_xy, %struct.png_XYZ, i16, i16 }
%struct.png_xy = type { i32, i32, i32, i32, i32, i32, i32, i32 }
%struct.png_XYZ = type { i32, i32, i32, i32, i32, i32, i32, i32, i32 }

@.str.11 = private unnamed_addr constant [30 x i8] c"No IDAT data (internal error)\00", align 1
@.str.12 = private unnamed_addr constant [34 x i8] c"Truncated compressed data in IDAT\00", align 1
@.str.13 = private unnamed_addr constant [32 x i8] c"IDAT: ADLER32 checksum mismatch\00", align 1
@.str.14 = private unnamed_addr constant [28 x i8] c"Decompression error in IDAT\00", align 1
@.str.15 = private unnamed_addr constant [30 x i8] c"Extra compressed data in IDAT\00", align 1
@.str.16 = private unnamed_addr constant [31 x i8] c"Extra compression data in IDAT\00", align 1

; Function Attrs: nounwind uwtable
define void @png_process_IDAT_data(ptr noalias noundef %0, ptr noundef %1, i64 noundef %2) #0 {
  %4 = alloca ptr, align 8
  %5 = alloca ptr, align 8
  %6 = alloca i64, align 8
  %7 = alloca i32, align 4
  store ptr %0, ptr %4, align 8
  store ptr %1, ptr %5, align 8
  store i64 %2, ptr %6, align 8
  %8 = load i64, ptr %6, align 8
  %9 = icmp ugt i64 %8, 0
  br i1 %9, label %10, label %13

10:                                               ; preds = %3
  %11 = load ptr, ptr %5, align 8
  %12 = icmp eq ptr %11, null
  br i1 %12, label %13, label %15

13:                                               ; preds = %10, %3
  %14 = load ptr, ptr %4, align 8
  call void @png_error(ptr noundef %14, ptr noundef @.str.11) #5
  unreachable

15:                                               ; preds = %10
  %16 = load ptr, ptr %5, align 8
  %17 = load ptr, ptr %4, align 8
  %18 = getelementptr inbounds %struct.png_struct_def, ptr %17, i32 0, i32 19
  %19 = getelementptr inbounds %struct.z_stream_s, ptr %18, i32 0, i32 0
  store ptr %16, ptr %19, align 8
  %20 = load i64, ptr %6, align 8
  %21 = trunc i64 %20 to i32
  %22 = load ptr, ptr %4, align 8
  %23 = getelementptr inbounds %struct.png_struct_def, ptr %22, i32 0, i32 19
  %24 = getelementptr inbounds %struct.z_stream_s, ptr %23, i32 0, i32 1
  store i32 %21, ptr %24, align 8
  br label %25

25:                                               ; preds = %174, %15
  %26 = load ptr, ptr %4, align 8
  %27 = getelementptr inbounds %struct.png_struct_def, ptr %26, i32 0, i32 19
  %28 = getelementptr inbounds %struct.z_stream_s, ptr %27, i32 0, i32 1
  %29 = load i32, ptr %28, align 8
  %30 = icmp ugt i32 %29, 0
  br i1 %30, label %31, label %37

31:                                               ; preds = %25
  %32 = load ptr, ptr %4, align 8
  %33 = getelementptr inbounds %struct.png_struct_def, ptr %32, i32 0, i32 16
  %34 = load i32, ptr %33, align 8
  %35 = and i32 %34, 8
  %36 = icmp eq i32 %35, 0
  br label %37

37:                                               ; preds = %31, %25
  %38 = phi i1 [ false, %25 ], [ %36, %31 ]
  br i1 %38, label %39, label %175

39:                                               ; preds = %37
  %40 = load ptr, ptr %4, align 8
  %41 = getelementptr inbounds %struct.png_struct_def, ptr %40, i32 0, i32 19
  %42 = getelementptr inbounds %struct.z_stream_s, ptr %41, i32 0, i32 4
  %43 = load i32, ptr %42, align 8
  %44 = icmp ugt i32 %43, 0
  br i1 %44, label %87, label %45

45:                                               ; preds = %39
  %46 = load ptr, ptr %4, align 8
  %47 = getelementptr inbounds %struct.png_struct_def, ptr %46, i32 0, i32 64
  %48 = load i8, ptr %47, align 2
  %49 = zext i8 %48 to i32
  %50 = icmp sge i32 %49, 8
  br i1 %50, label %51, label %62

51:                                               ; preds = %45
  %52 = load ptr, ptr %4, align 8
  %53 = getelementptr inbounds %struct.png_struct_def, ptr %52, i32 0, i32 42
  %54 = load i32, ptr %53, align 8
  %55 = zext i32 %54 to i64
  %56 = load ptr, ptr %4, align 8
  %57 = getelementptr inbounds %struct.png_struct_def, ptr %56, i32 0, i32 64
  %58 = load i8, ptr %57, align 2
  %59 = zext i8 %58 to i64
  %60 = lshr i64 %59, 3
  %61 = mul i64 %55, %60
  br label %74

62:                                               ; preds = %45
  %63 = load ptr, ptr %4, align 8
  %64 = getelementptr inbounds %struct.png_struct_def, ptr %63, i32 0, i32 42
  %65 = load i32, ptr %64, align 8
  %66 = zext i32 %65 to i64
  %67 = load ptr, ptr %4, align 8
  %68 = getelementptr inbounds %struct.png_struct_def, ptr %67, i32 0, i32 64
  %69 = load i8, ptr %68, align 2
  %70 = zext i8 %69 to i64
  %71 = mul i64 %66, %70
  %72 = add i64 %71, 7
  %73 = lshr i64 %72, 3
  br label %74

74:                                               ; preds = %62, %51
  %75 = phi i64 [ %61, %51 ], [ %73, %62 ]
  %76 = add i64 %75, 1
  %77 = trunc i64 %76 to i32
  %78 = load ptr, ptr %4, align 8
  %79 = getelementptr inbounds %struct.png_struct_def, ptr %78, i32 0, i32 19
  %80 = getelementptr inbounds %struct.z_stream_s, ptr %79, i32 0, i32 4
  store i32 %77, ptr %80, align 8
  %81 = load ptr, ptr %4, align 8
  %82 = getelementptr inbounds %struct.png_struct_def, ptr %81, i32 0, i32 46
  %83 = load ptr, ptr %82, align 8
  %84 = load ptr, ptr %4, align 8
  %85 = getelementptr inbounds %struct.png_struct_def, ptr %84, i32 0, i32 19
  %86 = getelementptr inbounds %struct.z_stream_s, ptr %85, i32 0, i32 3
  store ptr %83, ptr %86, align 8
  br label %87

87:                                               ; preds = %74, %39
  %88 = load ptr, ptr %4, align 8
  %89 = call i32 @png_zlib_inflate(ptr noundef %88, i32 noundef 2)
  store i32 %89, ptr %7, align 4
  %90 = load i32, ptr %7, align 4
  %91 = icmp ne i32 %90, 0
  br i1 %91, label %92, label %126

92:                                               ; preds = %87
  %93 = load i32, ptr %7, align 4
  %94 = icmp ne i32 %93, 1
  br i1 %94, label %95, label %126

95:                                               ; preds = %92
  %96 = load ptr, ptr %4, align 8
  %97 = getelementptr inbounds %struct.png_struct_def, ptr %96, i32 0, i32 16
  %98 = load i32, ptr %97, align 8
  %99 = or i32 %98, 8
  store i32 %99, ptr %97, align 8
  %100 = load ptr, ptr %4, align 8
  %101 = getelementptr inbounds %struct.png_struct_def, ptr %100, i32 0, i32 18
  store i32 0, ptr %101, align 8
  %102 = load ptr, ptr %4, align 8
  %103 = getelementptr inbounds %struct.png_struct_def, ptr %102, i32 0, i32 43
  %104 = load i32, ptr %103, align 4
  %105 = load ptr, ptr %4, align 8
  %106 = getelementptr inbounds %struct.png_struct_def, ptr %105, i32 0, i32 39
  %107 = load i32, ptr %106, align 8
  %108 = icmp uge i32 %104, %107
  br i1 %108, label %115, label %109

109:                                              ; preds = %95
  %110 = load ptr, ptr %4, align 8
  %111 = getelementptr inbounds %struct.png_struct_def, ptr %110, i32 0, i32 59
  %112 = load i8, ptr %111, align 1
  %113 = zext i8 %112 to i32
  %114 = icmp sgt i32 %113, 6
  br i1 %114, label %115, label %117

115:                                              ; preds = %109, %95
  %116 = load ptr, ptr %4, align 8
  call void @png_warning(ptr noundef %116, ptr noundef @.str.12)
  br label %125

117:                                              ; preds = %109
  %118 = load i32, ptr %7, align 4
  %119 = icmp eq i32 %118, -3
  br i1 %119, label %120, label %122

120:                                              ; preds = %117
  %121 = load ptr, ptr %4, align 8
  call void @png_benign_error(ptr noundef %121, ptr noundef @.str.13)
  br label %124

122:                                              ; preds = %117
  %123 = load ptr, ptr %4, align 8
  call void @png_error(ptr noundef %123, ptr noundef @.str.14) #5
  unreachable

124:                                              ; preds = %120
  br label %125

125:                                              ; preds = %124, %115
  br label %183

126:                                              ; preds = %92, %87
  %127 = load ptr, ptr %4, align 8
  %128 = getelementptr inbounds %struct.png_struct_def, ptr %127, i32 0, i32 19
  %129 = getelementptr inbounds %struct.z_stream_s, ptr %128, i32 0, i32 3
  %130 = load ptr, ptr %129, align 8
  %131 = load ptr, ptr %4, align 8
  %132 = getelementptr inbounds %struct.png_struct_def, ptr %131, i32 0, i32 46
  %133 = load ptr, ptr %132, align 8
  %134 = icmp ne ptr %130, %133
  br i1 %134, label %135, label %166

135:                                              ; preds = %126
  %136 = load ptr, ptr %4, align 8
  %137 = getelementptr inbounds %struct.png_struct_def, ptr %136, i32 0, i32 43
  %138 = load i32, ptr %137, align 4
  %139 = load ptr, ptr %4, align 8
  %140 = getelementptr inbounds %struct.png_struct_def, ptr %139, i32 0, i32 39
  %141 = load i32, ptr %140, align 8
  %142 = icmp uge i32 %138, %141
  br i1 %142, label %149, label %143

143:                                              ; preds = %135
  %144 = load ptr, ptr %4, align 8
  %145 = getelementptr inbounds %struct.png_struct_def, ptr %144, i32 0, i32 59
  %146 = load i8, ptr %145, align 1
  %147 = zext i8 %146 to i32
  %148 = icmp sgt i32 %147, 6
  br i1 %148, label %149, label %157

149:                                              ; preds = %143, %135
  %150 = load ptr, ptr %4, align 8
  call void @png_warning(ptr noundef %150, ptr noundef @.str.15)
  %151 = load ptr, ptr %4, align 8
  %152 = getelementptr inbounds %struct.png_struct_def, ptr %151, i32 0, i32 16
  %153 = load i32, ptr %152, align 8
  %154 = or i32 %153, 8
  store i32 %154, ptr %152, align 8
  %155 = load ptr, ptr %4, align 8
  %156 = getelementptr inbounds %struct.png_struct_def, ptr %155, i32 0, i32 18
  store i32 0, ptr %156, align 8
  br label %183

157:                                              ; preds = %143
  %158 = load ptr, ptr %4, align 8
  %159 = getelementptr inbounds %struct.png_struct_def, ptr %158, i32 0, i32 19
  %160 = getelementptr inbounds %struct.z_stream_s, ptr %159, i32 0, i32 4
  %161 = load i32, ptr %160, align 8
  %162 = icmp eq i32 %161, 0
  br i1 %162, label %163, label %165

163:                                              ; preds = %157
  %164 = load ptr, ptr %4, align 8
  call void @png_push_process_row(ptr noundef %164)
  br label %165

165:                                              ; preds = %163, %157
  br label %166

166:                                              ; preds = %165, %126
  %167 = load i32, ptr %7, align 4
  %168 = icmp eq i32 %167, 1
  br i1 %168, label %169, label %174

169:                                              ; preds = %166
  %170 = load ptr, ptr %4, align 8
  %171 = getelementptr inbounds %struct.png_struct_def, ptr %170, i32 0, i32 16
  %172 = load i32, ptr %171, align 8
  %173 = or i32 %172, 8
  store i32 %173, ptr %171, align 8
  br label %174

174:                                              ; preds = %169, %166
  br label %25, !llvm.loop !7

175:                                              ; preds = %37
  %176 = load ptr, ptr %4, align 8
  %177 = getelementptr inbounds %struct.png_struct_def, ptr %176, i32 0, i32 19
  %178 = getelementptr inbounds %struct.z_stream_s, ptr %177, i32 0, i32 1
  %179 = load i32, ptr %178, align 8
  %180 = icmp ugt i32 %179, 0
  br i1 %180, label %181, label %183

181:                                              ; preds = %175
  %182 = load ptr, ptr %4, align 8
  call void @png_warning(ptr noundef %182, ptr noundef @.str.16)
  br label %183

183:                                              ; preds = %181, %175, %149, %125
  ret void
}