; Function Attrs: nounwind uwtable
define void @png_process_IDAT_data(ptr noalias noundef %0, ptr noundef %1, i64 noundef %2) local_unnamed_addr #0 {
  %4 = icmp eq i64 %2, 0
  %5 = icmp eq ptr %1, null
  %or.cond = or i1 %5, %4
  br i1 %or.cond, label %6, label %7

6:                                                ; preds = %3
  tail call void @png_error(ptr noundef %0, ptr noundef nonnull @.str.11) #10
  unreachable

7:                                                ; preds = %3
  %8 = getelementptr inbounds i8, ptr %0, i64 320
  store ptr %1, ptr %8, align 8
  %9 = trunc i64 %2 to i32
  %10 = getelementptr inbounds i8, ptr %0, i64 328
  store i32 %9, ptr %10, align 8
  %.not57 = icmp eq i32 %9, 0
  br i1 %.not57, label %.critedge.thread, label %.lr.ph

.lr.ph:                                           ; preds = %7
  %11 = getelementptr inbounds i8, ptr %0, i64 304
  %12 = getelementptr inbounds i8, ptr %0, i64 352
  %13 = getelementptr inbounds i8, ptr %0, i64 618
  %14 = getelementptr inbounds i8, ptr %0, i64 528
  %15 = getelementptr inbounds i8, ptr %0, i64 552
  %16 = getelementptr inbounds i8, ptr %0, i64 344
  %17 = getelementptr inbounds i8, ptr %0, i64 532
  %18 = getelementptr inbounds i8, ptr %0, i64 512
  %19 = getelementptr inbounds i8, ptr %0, i64 613
  br label %20

20:                                               ; preds = %.lr.ph, %83
  %21 = load i32, ptr %11, align 8
  %22 = and i32 %21, 8
  %23 = icmp eq i32 %22, 0
  br i1 %23, label %24, label %.critedge

24:                                               ; preds = %20
  %25 = load i32, ptr %12, align 8
  %.not49 = icmp eq i32 %25, 0
  br i1 %.not49, label %26, label %45

26:                                               ; preds = %24
  %27 = load i8, ptr %13, align 2
  %28 = icmp ugt i8 %27, 7
  %29 = load i32, ptr %14, align 8
  %30 = zext i32 %29 to i64
  br i1 %28, label %31, label %35

31:                                               ; preds = %26
  %32 = lshr i8 %27, 3
  %33 = zext nneg i8 %32 to i64
  %34 = mul nuw nsw i64 %30, %33
  br label %40

35:                                               ; preds = %26
  %36 = zext nneg i8 %27 to i64
  %37 = mul nuw nsw i64 %30, %36
  %38 = add nuw nsw i64 %37, 7
  %39 = lshr i64 %38, 3
  br label %40

40:                                               ; preds = %35, %31
  %41 = phi i64 [ %34, %31 ], [ %39, %35 ]
  %42 = trunc i64 %41 to i32
  %43 = add i32 %42, 1
  store i32 %43, ptr %12, align 8
  %44 = load ptr, ptr %15, align 8
  store ptr %44, ptr %16, align 8
  br label %45

45:                                               ; preds = %40, %24
  %46 = tail call i32 @png_zlib_inflate(ptr noundef nonnull %0, i32 noundef 2) #11
  %or.cond3 = icmp ugt i32 %46, 1
  br i1 %or.cond3, label %47, label %61

47:                                               ; preds = %45
  %48 = load i32, ptr %11, align 8
  %49 = or i32 %48, 8
  store i32 %49, ptr %11, align 8
  %50 = getelementptr inbounds i8, ptr %0, i64 312
  store i32 0, ptr %50, align 8
  %51 = load i32, ptr %17, align 4
  %52 = load i32, ptr %18, align 8
  %.not52 = icmp ult i32 %51, %52
  br i1 %.not52, label %53, label %56

53:                                               ; preds = %47
  %54 = load i8, ptr %19, align 1
  %55 = icmp ugt i8 %54, 6
  br i1 %55, label %56, label %57

56:                                               ; preds = %53, %47
  tail call void @png_warning(ptr noundef nonnull %0, ptr noundef nonnull @.str.12) #11
  br label %.critedge.thread

57:                                               ; preds = %53
  %58 = icmp eq i32 %46, -3
  br i1 %58, label %59, label %60

59:                                               ; preds = %57
  tail call void @png_benign_error(ptr noundef nonnull %0, ptr noundef nonnull @.str.13) #11
  br label %.critedge.thread

60:                                               ; preds = %57
  tail call void @png_error(ptr noundef nonnull %0, ptr noundef nonnull @.str.14) #10
  unreachable

61:                                               ; preds = %45
  %62 = load ptr, ptr %16, align 8
  %63 = load ptr, ptr %15, align 8
  %.not50 = icmp eq ptr %62, %63
  br i1 %.not50, label %78, label %64

64:                                               ; preds = %61
  %65 = load i32, ptr %17, align 4
  %66 = load i32, ptr %18, align 8
  %.not51 = icmp ult i32 %65, %66
  br i1 %.not51, label %67, label %70

67:                                               ; preds = %64
  %68 = load i8, ptr %19, align 1
  %69 = icmp ugt i8 %68, 6
  br i1 %69, label %70, label %74

70:                                               ; preds = %67, %64
  tail call void @png_warning(ptr noundef nonnull %0, ptr noundef nonnull @.str.15) #11
  %71 = load i32, ptr %11, align 8
  %72 = or i32 %71, 8
  store i32 %72, ptr %11, align 8
  %73 = getelementptr inbounds i8, ptr %0, i64 312
  store i32 0, ptr %73, align 8
  br label %.critedge.thread

74:                                               ; preds = %67
  %75 = load i32, ptr %12, align 8
  %76 = icmp eq i32 %75, 0
  br i1 %76, label %77, label %78

77:                                               ; preds = %74
  tail call void @png_push_process_row(ptr noundef nonnull %0)
  br label %78

78:                                               ; preds = %74, %77, %61
  %79 = icmp eq i32 %46, 1
  br i1 %79, label %80, label %83

80:                                               ; preds = %78
  %81 = load i32, ptr %11, align 8
  %82 = or i32 %81, 8
  store i32 %82, ptr %11, align 8
  br label %83

83:                                               ; preds = %80, %78
  %.pr = load i32, ptr %10, align 8
  %.not = icmp eq i32 %.pr, 0
  br i1 %.not, label %.critedge.thread, label %20, !llvm.loop !25

.critedge:                                        ; preds = %20
  tail call void @png_warning(ptr noundef nonnull %0, ptr noundef nonnull @.str.16) #11
  br label %.critedge.thread

.critedge.thread:                                 ; preds = %83, %7, %56, %59, %.critedge, %70
  ret void
}